target datalayout = "e-m:e-p270:32:32-p271:32:32-p272:64:64-i64:64-i128:128-f80:128-n8:16:32:64-S128"
target triple = "x86_64-unknown-linux-gnu"

%"class.icu_75::UTF8CollationIterator" = type { %"class.icu_75::CollationIterator.base", ptr, i32, i32 }
%"class.icu_75::CollationIterator.base" = type <{ %"class.icu_75::UObject", ptr, ptr, %"class.icu_75::CollationIterator::CEBuffer", i32, [4 x i8], ptr, i32, i8 }>
%"class.icu_75::UObject" = type { ptr }
%"class.icu_75::CollationIterator::CEBuffer" = type { i32, %"class.icu_75::MaybeStackArray.0" }
%"class.icu_75::MaybeStackArray.0" = type { ptr, i32, i8, [40 x i64] }

@.str = private unnamed_addr constant [17 x i8] c" 000000000000\1000\00", align 1
@.str.1 = private unnamed_addr constant [17 x i8] c"\00\00\00\00\00\00\00\00\1E\0F\0F\0F\00\00\00\00\00", align 1

; Function Attrs: mustprogress nounwind uwtable
define noundef i32 @_ZN6icu_7521UTF8CollationIterator13nextCodePointER10UErrorCode(ptr noundef nonnull align 8 dereferenceable(408) %this, ptr noundef nonnull align 4 dereferenceable(4) %0) unnamed_addr #0 align 2 {
entry:
  %retval = alloca i32, align 4
  %this.addr = alloca ptr, align 8
  %.addr = alloca ptr, align 8
  %c = alloca i32, align 4
  %__t = alloca i8, align 1
  store ptr %this, ptr %this.addr, align 8
  store ptr %0, ptr %.addr, align 8
  %this1 = load ptr, ptr %this.addr, align 8
  %pos = getelementptr inbounds %"class.icu_75::UTF8CollationIterator", ptr %this1, i32 0, i32 2
  %1 = load i32, ptr %pos, align 8
  %length = getelementptr inbounds %"class.icu_75::UTF8CollationIterator", ptr %this1, i32 0, i32 3
  %2 = load i32, ptr %length, align 4
  %cmp = icmp eq i32 %1, %2
  br i1 %cmp, label %if.then, label %if.end

if.then:                                          ; preds = %entry
  store i32 -1, ptr %retval, align 4
  br label %return

if.end:                                           ; preds = %entry
  %u8 = getelementptr inbounds %"class.icu_75::UTF8CollationIterator", ptr %this1, i32 0, i32 1
  %3 = load ptr, ptr %u8, align 8
  %pos2 = getelementptr inbounds %"class.icu_75::UTF8CollationIterator", ptr %this1, i32 0, i32 2
  %4 = load i32, ptr %pos2, align 8
  %idxprom = sext i32 %4 to i64
  %arrayidx = getelementptr inbounds i8, ptr %3, i64 %idxprom
  %5 = load i8, ptr %arrayidx, align 1
  %conv = zext i8 %5 to i32
  %cmp3 = icmp eq i32 %conv, 0
  br i1 %cmp3, label %land.lhs.true, label %if.end9

land.lhs.true:                                    ; preds = %if.end
  %length4 = getelementptr inbounds %"class.icu_75::UTF8CollationIterator", ptr %this1, i32 0, i32 3
  %6 = load i32, ptr %length4, align 4
  %cmp5 = icmp slt i32 %6, 0
  br i1 %cmp5, label %if.then6, label %if.end9

if.then6:                                         ; preds = %land.lhs.true
  %pos7 = getelementptr inbounds %"class.icu_75::UTF8CollationIterator", ptr %this1, i32 0, i32 2
  %7 = load i32, ptr %pos7, align 8
  %length8 = getelementptr inbounds %"class.icu_75::UTF8CollationIterator", ptr %this1, i32 0, i32 3
  store i32 %7, ptr %length8, align 4
  store i32 -1, ptr %retval, align 4
  br label %return

if.end9:                                          ; preds = %land.lhs.true, %if.end
  br label %do.body

do.body:                                          ; preds = %if.end9
  %u810 = getelementptr inbounds %"class.icu_75::UTF8CollationIterator", ptr %this1, i32 0, i32 1
  %8 = load ptr, ptr %u810, align 8
  %pos11 = getelementptr inbounds %"class.icu_75::UTF8CollationIterator", ptr %this1, i32 0, i32 2
  %9 = load i32, ptr %pos11, align 8
  %inc = add nsw i32 %9, 1
  store i32 %inc, ptr %pos11, align 8
  %idxprom12 = sext i32 %9 to i64
  %arrayidx13 = getelementptr inbounds i8, ptr %8, i64 %idxprom12
  %10 = load i8, ptr %arrayidx13, align 1
  %conv14 = zext i8 %10 to i32
  store i32 %conv14, ptr %c, align 4
  %11 = load i32, ptr %c, align 4
  %and = and i32 %11, 128
  %cmp15 = icmp eq i32 %and, 0
  br i1 %cmp15, label %if.end100, label %if.then16

if.then16:                                        ; preds = %do.body
  store i8 0, ptr %__t, align 1
  %pos17 = getelementptr inbounds %"class.icu_75::UTF8CollationIterator", ptr %this1, i32 0, i32 2
  %12 = load i32, ptr %pos17, align 8
  %length18 = getelementptr inbounds %"class.icu_75::UTF8CollationIterator", ptr %this1, i32 0, i32 3
  %13 = load i32, ptr %length18, align 4
  %cmp19 = icmp ne i32 %12, %13
  br i1 %cmp19, label %land.lhs.true20, label %if.else

land.lhs.true20:                                  ; preds = %if.then16
  %14 = load i32, ptr %c, align 4
  %cmp21 = icmp sge i32 %14, 224
  br i1 %cmp21, label %cond.true, label %cond.false78

cond.true:                                        ; preds = %land.lhs.true20
  %15 = load i32, ptr %c, align 4
  %cmp22 = icmp slt i32 %15, 240
  br i1 %cmp22, label %cond.true23, label %cond.false

cond.true23:                                      ; preds = %cond.true
  %16 = load i32, ptr %c, align 4
  %and24 = and i32 %16, 15
  store i32 %and24, ptr %c, align 4
  %idxprom25 = sext i32 %and24 to i64
  %arrayidx26 = getelementptr inbounds [17 x i8], ptr @.str, i64 0, i64 %idxprom25
  %17 = load i8, ptr %arrayidx26, align 1
  %conv27 = sext i8 %17 to i32
  %u828 = getelementptr inbounds %"class.icu_75::UTF8CollationIterator", ptr %this1, i32 0, i32 1
  %18 = load ptr, ptr %u828, align 8
  %pos29 = getelementptr inbounds %"class.icu_75::UTF8CollationIterator", ptr %this1, i32 0, i32 2
  %19 = load i32, ptr %pos29, align 8
  %idxprom30 = sext i32 %19 to i64
  %arrayidx31 = getelementptr inbounds i8, ptr %18, i64 %idxprom30
  %20 = load i8, ptr %arrayidx31, align 1
  store i8 %20, ptr %__t, align 1
  %conv32 = zext i8 %20 to i32
  %shr = ashr i32 %conv32, 5
  %shl = shl i32 1, %shr
  %and33 = and i32 %conv27, %shl
  %tobool = icmp ne i32 %and33, 0
  br i1 %tobool, label %land.lhs.true34, label %if.else

land.lhs.true34:                                  ; preds = %cond.true23
  %21 = load i8, ptr %__t, align 1
  %conv35 = zext i8 %21 to i32
  %and36 = and i32 %conv35, 63
  %conv37 = trunc i32 %and36 to i8
  store i8 %conv37, ptr %__t, align 1
  br i1 true, label %land.lhs.true70, label %if.else

cond.false:                                       ; preds = %cond.true
  %22 = load i32, ptr %c, align 4
  %sub = sub nsw i32 %22, 240
  store i32 %sub, ptr %c, align 4
  %cmp38 = icmp sle i32 %sub, 4
  br i1 %cmp38, label %land.lhs.true39, label %if.else

land.lhs.true39:                                  ; preds = %cond.false
  %u840 = getelementptr inbounds %"class.icu_75::UTF8CollationIterator", ptr %this1, i32 0, i32 1
  %23 = load ptr, ptr %u840, align 8
  %pos41 = getelementptr inbounds %"class.icu_75::UTF8CollationIterator", ptr %this1, i32 0, i32 2
  %24 = load i32, ptr %pos41, align 8
  %idxprom42 = sext i32 %24 to i64
  %arrayidx43 = getelementptr inbounds i8, ptr %23, i64 %idxprom42
  %25 = load i8, ptr %arrayidx43, align 1
  store i8 %25, ptr %__t, align 1
  %conv44 = zext i8 %25 to i32
  %shr45 = ashr i32 %conv44, 4
  %idxprom46 = sext i32 %shr45 to i64
  %arrayidx47 = getelementptr inbounds [17 x i8], ptr @.str.1, i64 0, i64 %idxprom46
  %26 = load i8, ptr %arrayidx47, align 1
  %conv48 = sext i8 %26 to i32
  %27 = load i32, ptr %c, align 4
  %shl49 = shl i32 1, %27
  %and50 = and i32 %conv48, %shl49
  %tobool51 = icmp ne i32 %and50, 0
  br i1 %tobool51, label %land.lhs.true52, label %if.else

land.lhs.true52:                                  ; preds = %land.lhs.true39
  %28 = load i32, ptr %c, align 4
  %shl53 = shl i32 %28, 6
  %29 = load i8, ptr %__t, align 1
  %conv54 = zext i8 %29 to i32
  %and55 = and i32 %conv54, 63
  %or = or i32 %shl53, %and55
  store i32 %or, ptr %c, align 4
  %pos56 = getelementptr inbounds %"class.icu_75::UTF8CollationIterator", ptr %this1, i32 0, i32 2
  %30 = load i32, ptr %pos56, align 8
  %inc57 = add nsw i32 %30, 1
  store i32 %inc57, ptr %pos56, align 8
  %length58 = getelementptr inbounds %"class.icu_75::UTF8CollationIterator", ptr %this1, i32 0, i32 3
  %31 = load i32, ptr %length58, align 4
  %cmp59 = icmp ne i32 %inc57, %31
  br i1 %cmp59, label %land.lhs.true60, label %if.else

land.lhs.true60:                                  ; preds = %land.lhs.true52
  %u861 = getelementptr inbounds %"class.icu_75::UTF8CollationIterator", ptr %this1, i32 0, i32 1
  %32 = load ptr, ptr %u861, align 8
  %pos62 = getelementptr inbounds %"class.icu_75::UTF8CollationIterator", ptr %this1, i32 0, i32 2
  %33 = load i32, ptr %pos62, align 8
  %idxprom63 = sext i32 %33 to i64
  %arrayidx64 = getelementptr inbounds i8, ptr %32, i64 %idxprom63
  %34 = load i8, ptr %arrayidx64, align 1
  %conv65 = zext i8 %34 to i32
  %sub66 = sub nsw i32 %conv65, 128
  %conv67 = trunc i32 %sub66 to i8
  store i8 %conv67, ptr %__t, align 1
  %conv68 = zext i8 %conv67 to i32
  %cmp69 = icmp sle i32 %conv68, 63
  br i1 %cmp69, label %land.lhs.true70, label %if.else

land.lhs.true70:                                  ; preds = %land.lhs.true60, %land.lhs.true34
  %35 = load i32, ptr %c, align 4
  %shl71 = shl i32 %35, 6
  %36 = load i8, ptr %__t, align 1
  %conv72 = zext i8 %36 to i32
  %or73 = or i32 %shl71, %conv72
  store i32 %or73, ptr %c, align 4
  %pos74 = getelementptr inbounds %"class.icu_75::UTF8CollationIterator", ptr %this1, i32 0, i32 2
  %37 = load i32, ptr %pos74, align 8
  %inc75 = add nsw i32 %37, 1
  store i32 %inc75, ptr %pos74, align 8
  %length76 = getelementptr inbounds %"class.icu_75::UTF8CollationIterator", ptr %this1, i32 0, i32 3
  %38 = load i32, ptr %length76, align 4
  %cmp77 = icmp ne i32 %inc75, %38
  br i1 %cmp77, label %land.lhs.true82, label %if.else

cond.false78:                                     ; preds = %land.lhs.true20
  %39 = load i32, ptr %c, align 4
  %cmp79 = icmp sge i32 %39, 194
  br i1 %cmp79, label %land.lhs.true80, label %if.else

land.lhs.true80:                                  ; preds = %cond.false78
  %40 = load i32, ptr %c, align 4
  %and81 = and i32 %40, 31
  store i32 %and81, ptr %c, align 4
  br i1 true, label %land.lhs.true82, label %if.else

land.lhs.true82:                                  ; preds = %land.lhs.true80, %land.lhs.true70
  %u883 = getelementptr inbounds %"class.icu_75::UTF8CollationIterator", ptr %this1, i32 0, i32 1
  %41 = load ptr, ptr %u883, align 8
  %pos84 = getelementptr inbounds %"class.icu_75::UTF8CollationIterator", ptr %this1, i32 0, i32 2
  %42 = load i32, ptr %pos84, align 8
  %idxprom85 = sext i32 %42 to i64
  %arrayidx86 = getelementptr inbounds i8, ptr %41, i64 %idxprom85
  %43 = load i8, ptr %arrayidx86, align 1
  %conv87 = zext i8 %43 to i32
  %sub88 = sub nsw i32 %conv87, 128
  %conv89 = trunc i32 %sub88 to i8
  store i8 %conv89, ptr %__t, align 1
  %conv90 = zext i8 %conv89 to i32
  %cmp91 = icmp sle i32 %conv90, 63
  br i1 %cmp91, label %land.lhs.true92, label %if.else

land.lhs.true92:                                  ; preds = %land.lhs.true82
  %44 = load i32, ptr %c, align 4
  %shl93 = shl i32 %44, 6
  %45 = load i8, ptr %__t, align 1
  %conv94 = zext i8 %45 to i32
  %or95 = or i32 %shl93, %conv94
  store i32 %or95, ptr %c, align 4
  %pos96 = getelementptr inbounds %"class.icu_75::UTF8CollationIterator", ptr %this1, i32 0, i32 2
  %46 = load i32, ptr %pos96, align 8
  %inc97 = add nsw i32 %46, 1
  store i32 %inc97, ptr %pos96, align 8
  br i1 true, label %if.then98, label %if.else

if.then98:                                        ; preds = %land.lhs.true92
  br label %if.end99

if.else:                                          ; preds = %land.lhs.true92, %land.lhs.true82, %land.lhs.true80, %cond.false78, %land.lhs.true70, %land.lhs.true60, %land.lhs.true52, %land.lhs.true39, %cond.false, %land.lhs.true34, %cond.true23, %if.then16
  store i32 65533, ptr %c, align 4
  br label %if.end99

if.end99:                                         ; preds = %if.else, %if.then98
  br label %if.end100

if.end100:                                        ; preds = %if.end99, %do.body
  br label %do.end

do.end:                                           ; preds = %if.end100
  %47 = load i32, ptr %c, align 4
  store i32 %47, ptr %retval, align 4
  br label %return

return:                                           ; preds = %do.end, %if.then6, %if.then
  %48 = load i32, ptr %retval, align 4
  ret i32 %48
}