; Function Attrs: mustprogress nofree norecurse nosync nounwind willreturn memory(read, argmem: readwrite, inaccessiblemem: none) uwtable
define noundef i32 @_ZN6icu_7521UTF8CollationIterator13nextCodePointER10UErrorCode(ptr nocapture noundef nonnull align 8 dereferenceable(408) %this, ptr nocapture nonnull readnone align 4 %0) unnamed_addr #10 align 2 {
entry:
  %pos = getelementptr inbounds i8, ptr %this, i64 400
  %1 = load i32, ptr %pos, align 8
  %length = getelementptr inbounds i8, ptr %this, i64 404
  %2 = load i32, ptr %length, align 4
  %cmp = icmp eq i32 %1, %2
  br i1 %cmp, label %return, label %if.end

if.end:                                           ; preds = %entry
  %u8 = getelementptr inbounds i8, ptr %this, i64 392
  %3 = load ptr, ptr %u8, align 8
  %idxprom = sext i32 %1 to i64
  %arrayidx = getelementptr inbounds i8, ptr %3, i64 %idxprom
  %4 = load i8, ptr %arrayidx, align 1
  %cmp3 = icmp eq i8 %4, 0
  %cmp5 = icmp slt i32 %2, 0
  %or.cond = and i1 %cmp5, %cmp3
  br i1 %or.cond, label %if.then6, label %do.body

if.then6:                                         ; preds = %if.end
  store i32 %1, ptr %length, align 4
  br label %return

do.body:                                          ; preds = %if.end
  %inc = add nsw i32 %1, 1
  store i32 %inc, ptr %pos, align 8
  %5 = load i8, ptr %arrayidx, align 1
  %conv14 = zext i8 %5 to i32
  %cmp15 = icmp sgt i8 %5, -1
  br i1 %cmp15, label %return, label %if.then16

if.then16:                                        ; preds = %do.body
  %cmp19.not = icmp eq i32 %inc, %2
  br i1 %cmp19.not, label %return, label %land.lhs.true20

land.lhs.true20:                                  ; preds = %if.then16
  %cmp21 = icmp ugt i8 %5, -33
  br i1 %cmp21, label %cond.true, label %cond.false78

cond.true:                                        ; preds = %land.lhs.true20
  %cmp22 = icmp ult i8 %5, -16
  br i1 %cmp22, label %cond.true23, label %cond.false

cond.true23:                                      ; preds = %cond.true
  %and24 = and i32 %conv14, 15
  %idxprom25 = zext nneg i32 %and24 to i64
  %arrayidx26 = getelementptr inbounds [17 x i8], ptr @.str, i64 0, i64 %idxprom25
  %6 = load i8, ptr %arrayidx26, align 1
  %conv2716 = zext i8 %6 to i32
  %idxprom30 = sext i32 %inc to i64
  %arrayidx31 = getelementptr inbounds i8, ptr %3, i64 %idxprom30
  %7 = load i8, ptr %arrayidx31, align 1
  %8 = lshr i8 %7, 5
  %shr = zext nneg i8 %8 to i32
  %shl = shl nuw nsw i32 1, %shr
  %and33 = and i32 %shl, %conv2716
  %tobool.not = icmp eq i32 %and33, 0
  br i1 %tobool.not, label %return, label %land.lhs.true34

land.lhs.true34:                                  ; preds = %cond.true23
  %and36 = and i8 %7, 63
  br label %land.lhs.true70

cond.false:                                       ; preds = %cond.true
  %sub = add nsw i32 %conv14, -240
  %cmp38 = icmp ult i8 %5, -11
  br i1 %cmp38, label %land.lhs.true39, label %return

land.lhs.true39:                                  ; preds = %cond.false
  %idxprom42 = sext i32 %inc to i64
  %arrayidx43 = getelementptr inbounds i8, ptr %3, i64 %idxprom42
  %9 = load i8, ptr %arrayidx43, align 1
  %conv44 = zext i8 %9 to i32
  %shr45 = lshr i32 %conv44, 4
  %idxprom46 = zext nneg i32 %shr45 to i64
  %arrayidx47 = getelementptr inbounds [17 x i8], ptr @.str.1, i64 0, i64 %idxprom46
  %10 = load i8, ptr %arrayidx47, align 1
  %conv48 = sext i8 %10 to i32
  %shl49 = shl nuw nsw i32 1, %sub
  %and50 = and i32 %shl49, %conv48
  %tobool51.not = icmp eq i32 %and50, 0
  br i1 %tobool51.not, label %return, label %land.lhs.true52

land.lhs.true52:                                  ; preds = %land.lhs.true39
  %inc57 = add nsw i32 %1, 2
  store i32 %inc57, ptr %pos, align 8
  %cmp59.not = icmp eq i32 %inc57, %2
  br i1 %cmp59.not, label %return, label %land.lhs.true60

land.lhs.true60:                                  ; preds = %land.lhs.true52
  %shl53 = shl nuw nsw i32 %sub, 6
  %and55 = and i32 %conv44, 63
  %or = or disjoint i32 %and55, %shl53
  %idxprom63 = sext i32 %inc57 to i64
  %arrayidx64 = getelementptr inbounds i8, ptr %3, i64 %idxprom63
  %11 = load i8, ptr %arrayidx64, align 1
  %sub66 = xor i8 %11, -128
  %cmp69 = icmp ult i8 %sub66, 64
  br i1 %cmp69, label %land.lhs.true70, label %return

land.lhs.true70:                                  ; preds = %land.lhs.true34, %land.lhs.true60
  %12 = phi i32 [ %inc, %land.lhs.true34 ], [ %inc57, %land.lhs.true60 ]
  %c.0 = phi i32 [ %and24, %land.lhs.true34 ], [ %or, %land.lhs.true60 ]
  %__t.0 = phi i8 [ %and36, %land.lhs.true34 ], [ %sub66, %land.lhs.true60 ]
  %shl71 = shl nuw nsw i32 %c.0, 6
  %conv72 = zext nneg i8 %__t.0 to i32
  %or73 = or disjoint i32 %shl71, %conv72
  %inc75 = add nsw i32 %12, 1
  store i32 %inc75, ptr %pos, align 8
  %cmp77.not = icmp eq i32 %inc75, %2
  br i1 %cmp77.not, label %return, label %land.lhs.true82

cond.false78:                                     ; preds = %land.lhs.true20
  %cmp79 = icmp ugt i8 %5, -63
  br i1 %cmp79, label %land.lhs.true80, label %return

land.lhs.true80:                                  ; preds = %cond.false78
  %and81 = and i32 %conv14, 31
  br label %land.lhs.true82

land.lhs.true82:                                  ; preds = %land.lhs.true80, %land.lhs.true70
  %13 = phi i32 [ %inc75, %land.lhs.true70 ], [ %inc, %land.lhs.true80 ]
  %c.1 = phi i32 [ %or73, %land.lhs.true70 ], [ %and81, %land.lhs.true80 ]
  %idxprom85 = sext i32 %13 to i64
  %arrayidx86 = getelementptr inbounds i8, ptr %3, i64 %idxprom85
  %14 = load i8, ptr %arrayidx86, align 1
  %sub88 = xor i8 %14, -128
  %cmp91 = icmp ult i8 %sub88, 64
  br i1 %cmp91, label %land.lhs.true92, label %return

land.lhs.true92:                                  ; preds = %land.lhs.true82
  %conv90 = zext nneg i8 %sub88 to i32
  %shl93 = shl nuw nsw i32 %c.1, 6
  %or95 = or disjoint i32 %shl93, %conv90
  %inc97 = add nsw i32 %13, 1
  store i32 %inc97, ptr %pos, align 8
  br label %return

return:                                           ; preds = %land.lhs.true92, %do.body, %land.lhs.true82, %cond.false78, %land.lhs.true70, %land.lhs.true60, %land.lhs.true52, %land.lhs.true39, %cond.false, %cond.true23, %if.then16, %entry, %if.then6
  %retval.0 = phi i32 [ -1, %if.then6 ], [ -1, %entry ], [ %conv14, %do.body ], [ %or95, %land.lhs.true92 ], [ 65533, %land.lhs.true82 ], [ 65533, %cond.false78 ], [ 65533, %land.lhs.true70 ], [ 65533, %land.lhs.true60 ], [ 65533, %land.lhs.true52 ], [ 65533, %land.lhs.true39 ], [ 65533, %cond.false ], [ 65533, %cond.true23 ], [ 65533, %if.then16 ]
  ret i32 %retval.0
}